target datalayout = "e-m:e-p270:32:32-p271:32:32-p272:64:64-i64:64-i128:128-f80:128-n8:16:32:64-S128"
target triple = "x86_64-unknown-linux-gnu"

%struct.QEnumLookup = type { ptr, ptr, i32 }
%struct.Chardev = type { %struct.Object, %struct.QemuMutex, ptr, ptr, ptr, i32, i32, i8, ptr, ptr, [1 x i64] }
%struct.Object = type { ptr, ptr, ptr, i32, ptr }
%struct.QemuMutex = type { %union.pthread_mutex_t, i8 }
%union.pthread_mutex_t = type { %struct.__pthread_mutex_s }
%struct.__pthread_mutex_s = type { i32, i32, i32, i32, i32, i16, i16, %struct.__pthread_internal_list }
%struct.__pthread_internal_list = type { ptr, ptr }
%struct.ChardevBackend = type { i32, %union.anon }
%union.anon = type { %struct.ChardevFileWrapper }
%struct.ChardevFileWrapper = type { ptr }
%struct.ErrorPropagator = type { ptr, ptr }
%struct.ChardevReturn = type { ptr }

@.str = private unnamed_addr constant [10 x i8] c"/chardevs\00", align 1
@.str.2 = private unnamed_addr constant [23 x i8] c"../qemu/chardev/char.c\00", align 1
@.str.4 = private unnamed_addr constant [8 x i8] c"chardev\00", align 1
@error_fatal = external global ptr, align 8
@__func__.qmp_chardev_add = private unnamed_addr constant [16 x i8] c"qmp_chardev_add\00", align 1
@.str.90 = private unnamed_addr constant [36 x i8] c"Chardev with id '%s' already exists\00", align 1
@ChardevBackendKind_lookup = external constant %struct.QEnumLookup, align 8
@.str.91 = private unnamed_addr constant [12 x i8] c"chardev-pty\00", align 1
@.str.92 = private unnamed_addr constant [29 x i8] c"Failed to add chardev '%s': \00", align 1
@.str.104 = private unnamed_addr constant [101 x i8] c"/home/dtcxzyw/WorkSpace/Projects/compilers/llvm-opt-benchmark/bench/qemu/qemu/include/chardev/char.h\00", align 1
@__func__.CHARDEV = private unnamed_addr constant [8 x i8] c"CHARDEV\00", align 1

; Function Attrs: nounwind sspstrong uwtable
define internal void @error_propagator_cleanup(ptr noundef %prop) #0 {
entry:
  %prop.addr = alloca ptr, align 8
  store ptr %prop, ptr %prop.addr, align 8
  %0 = load ptr, ptr %prop.addr, align 8
  %errp = getelementptr inbounds %struct.ErrorPropagator, ptr %0, i32 0, i32 1
  %1 = load ptr, ptr %errp, align 8
  %2 = load ptr, ptr %prop.addr, align 8
  %local_err = getelementptr inbounds %struct.ErrorPropagator, ptr %2, i32 0, i32 0
  %3 = load ptr, ptr %local_err, align 8
  call void @error_propagate(ptr noundef %1, ptr noundef %3)
  ret void
}

; Function Attrs: nounwind sspstrong uwtable
define internal void @glib_autoptr_clear_Chardev(ptr noundef %_ptr) #0 {
entry:
  %_ptr.addr = alloca ptr, align 8
  store ptr %_ptr, ptr %_ptr.addr, align 8
  %0 = load ptr, ptr %_ptr.addr, align 8
  %tobool = icmp ne ptr %0, null
  br i1 %tobool, label %if.then, label %if.end

if.then:                                          ; preds = %entry
  %1 = load ptr, ptr %_ptr.addr, align 8
  call void @object_unref(ptr noundef %1)
  br label %if.end

if.end:                                           ; preds = %if.then, %entry
  ret void
}

; Function Attrs: nounwind sspstrong uwtable
define internal ptr @CHARDEV(ptr noundef %obj) #0 {
entry:
  %obj.addr = alloca ptr, align 8
  store ptr %obj, ptr %obj.addr, align 8
  %0 = load ptr, ptr %obj.addr, align 8
  %call = call ptr @object_dynamic_cast_assert(ptr noundef %0, ptr noundef @.str.4, ptr noundef @.str.104, i32 noundef 231, ptr noundef @__func__.CHARDEV)
  ret ptr %call
}

; Function Attrs: nounwind sspstrong uwtable
define internal void @glib_auto_cleanup_ErrorPropagator(ptr noundef %_ptr) #0 {
entry:
  %_ptr.addr = alloca ptr, align 8
  store ptr %_ptr, ptr %_ptr.addr, align 8
  %0 = load ptr, ptr %_ptr.addr, align 8
  call void @error_propagator_cleanup(ptr noundef %0)
  ret void
}

; Function Attrs: nounwind sspstrong uwtable
define internal void @glib_autoptr_cleanup_Chardev(ptr noundef %_ptr) #0 {
entry:
  %_ptr.addr = alloca ptr, align 8
  store ptr %_ptr, ptr %_ptr.addr, align 8
  %0 = load ptr, ptr %_ptr.addr, align 8
  %1 = load ptr, ptr %0, align 8
  call void @glib_autoptr_clear_Chardev(ptr noundef %1)
  ret void
}

; Function Attrs: nounwind sspstrong uwtable
define dso_local ptr @get_chardevs_root() #0 {
entry:
  %call = call ptr @object_get_root()
  %call1 = call ptr @container_get(ptr noundef %call, ptr noundef @.str)
  ret ptr %call1
}

; Function Attrs: nounwind sspstrong uwtable
define dso_local ptr @qemu_chr_find(ptr noundef %name) #0 {
entry:
  %name.addr = alloca ptr, align 8
  %obj = alloca ptr, align 8
  store ptr %name, ptr %name.addr, align 8
  %call = call ptr @get_chardevs_root()
  %0 = load ptr, ptr %name.addr, align 8
  %call1 = call ptr @object_resolve_path_component(ptr noundef %call, ptr noundef %0)
  store ptr %call1, ptr %obj, align 8
  %1 = load ptr, ptr %obj, align 8
  %tobool = icmp ne ptr %1, null
  br i1 %tobool, label %cond.true, label %cond.false

cond.true:                                        ; preds = %entry
  %2 = load ptr, ptr %obj, align 8
  %call2 = call ptr @CHARDEV(ptr noundef %2)
  br label %cond.end

cond.false:                                       ; preds = %entry
  br label %cond.end

cond.end:                                         ; preds = %cond.false, %cond.true
  %cond = phi ptr [ %call2, %cond.true ], [ null, %cond.false ]
  ret ptr %cond
}

; Function Attrs: nounwind sspstrong uwtable
define dso_local ptr @qmp_chardev_add(ptr noundef %id, ptr noundef %backend, ptr noundef %errp) #0 {
entry:
  %retval = alloca ptr, align 8
  %id.addr = alloca ptr, align 8
  %backend.addr = alloca ptr, align 8
  %errp.addr = alloca ptr, align 8
  %_auto_errp_prop = alloca %struct.ErrorPropagator, align 8
  %cc = alloca ptr, align 8
  %ret = alloca ptr, align 8
  %chr = alloca ptr, align 8
  %cleanup.dest.slot = alloca i32, align 4
  store ptr %id, ptr %id.addr, align 8
  store ptr %backend, ptr %backend.addr, align 8
  store ptr %errp, ptr %errp.addr, align 8
  %local_err = getelementptr inbounds %struct.ErrorPropagator, ptr %_auto_errp_prop, i32 0, i32 0
  store ptr null, ptr %local_err, align 8
  %errp1 = getelementptr inbounds %struct.ErrorPropagator, ptr %_auto_errp_prop, i32 0, i32 1
  %0 = load ptr, ptr %errp.addr, align 8
  store ptr %0, ptr %errp1, align 8
  br label %do.body

do.body:                                          ; preds = %entry
  %1 = load ptr, ptr %errp.addr, align 8
  %tobool = icmp ne ptr %1, null
  br i1 %tobool, label %lor.lhs.false, label %if.then

lor.lhs.false:                                    ; preds = %do.body
  %2 = load ptr, ptr %errp.addr, align 8
  %cmp = icmp eq ptr %2, @error_fatal
  br i1 %cmp, label %if.then, label %if.end

if.then:                                          ; preds = %lor.lhs.false, %do.body
  %local_err2 = getelementptr inbounds %struct.ErrorPropagator, ptr %_auto_errp_prop, i32 0, i32 0
  store ptr %local_err2, ptr %errp.addr, align 8
  br label %if.end

if.end:                                           ; preds = %if.then, %lor.lhs.false
  br label %do.cond

do.cond:                                          ; preds = %if.end
  br label %do.end

do.end:                                           ; preds = %do.cond
  store ptr null, ptr %chr, align 8
  %3 = load ptr, ptr %id.addr, align 8
  %call = call ptr @qemu_chr_find(ptr noundef %3)
  %tobool3 = icmp ne ptr %call, null
  br i1 %tobool3, label %if.then4, label %if.end5

if.then4:                                         ; preds = %do.end
  %4 = load ptr, ptr %errp.addr, align 8
  %5 = load ptr, ptr %id.addr, align 8
  call void (ptr, ptr, i32, ptr, ptr, ...) @error_setg_internal(ptr noundef %4, ptr noundef @.str.2, i32 noundef 1010, ptr noundef @__func__.qmp_chardev_add, ptr noundef @.str.90, ptr noundef %5)
  store ptr null, ptr %retval, align 8
  store i32 1, ptr %cleanup.dest.slot, align 4
  br label %cleanup

if.end5:                                          ; preds = %do.end
  %6 = load ptr, ptr %backend.addr, align 8
  %type = getelementptr inbounds %struct.ChardevBackend, ptr %6, i32 0, i32 0
  %7 = load i32, ptr %type, align 8
  %call6 = call ptr @qapi_enum_lookup(ptr noundef @ChardevBackendKind_lookup, i32 noundef %7)
  %8 = load ptr, ptr %errp.addr, align 8
  %call7 = call ptr @char_get_class(ptr noundef %call6, ptr noundef %8)
  store ptr %call7, ptr %cc, align 8
  %9 = load ptr, ptr %cc, align 8
  %tobool8 = icmp ne ptr %9, null
  br i1 %tobool8, label %if.end10, label %if.then9

if.then9:                                         ; preds = %if.end5
  br label %err

if.end10:                                         ; preds = %if.end5
  %10 = load ptr, ptr %id.addr, align 8
  %11 = load ptr, ptr %cc, align 8
  %call11 = call ptr @object_class_get_name(ptr noundef %11)
  %12 = load ptr, ptr %backend.addr, align 8
  %13 = load ptr, ptr %errp.addr, align 8
  %call12 = call ptr @chardev_new(ptr noundef %10, ptr noundef %call11, ptr noundef %12, ptr noundef null, i1 noundef zeroext false, ptr noundef %13)
  store ptr %call12, ptr %chr, align 8
  %14 = load ptr, ptr %chr, align 8
  %tobool13 = icmp ne ptr %14, null
  br i1 %tobool13, label %if.end15, label %if.then14

if.then14:                                        ; preds = %if.end10
  br label %err

if.end15:                                         ; preds = %if.end10
  %call16 = call ptr @get_chardevs_root()
  %15 = load ptr, ptr %id.addr, align 8
  %16 = load ptr, ptr %chr, align 8
  %17 = load ptr, ptr %errp.addr, align 8
  %call17 = call ptr @object_property_try_add_child(ptr noundef %call16, ptr noundef %15, ptr noundef %16, ptr noundef %17)
  %tobool18 = icmp ne ptr %call17, null
  br i1 %tobool18, label %if.end20, label %if.then19

if.then19:                                        ; preds = %if.end15
  br label %err

if.end20:                                         ; preds = %if.end15
  %call21 = call noalias ptr @g_malloc0_n(i64 noundef 1, i64 noundef 8) #15
  store ptr %call21, ptr %ret, align 8
  %18 = load ptr, ptr %chr, align 8
  %call22 = call ptr @object_dynamic_cast(ptr noundef %18, ptr noundef @.str.91)
  %tobool23 = icmp ne ptr %call22, null
  br i1 %tobool23, label %if.then24, label %if.end26

if.then24:                                        ; preds = %if.end20
  %19 = load ptr, ptr %chr, align 8
  %filename = getelementptr inbounds %struct.Chardev, ptr %19, i32 0, i32 4
  %20 = load ptr, ptr %filename, align 8
  %add.ptr = getelementptr i8, ptr %20, i64 4
  %call25 = call noalias ptr @g_strdup(ptr noundef %add.ptr)
  %21 = load ptr, ptr %ret, align 8
  %pty = getelementptr inbounds %struct.ChardevReturn, ptr %21, i32 0, i32 0
  store ptr %call25, ptr %pty, align 8
  br label %if.end26

if.end26:                                         ; preds = %if.then24, %if.end20
  %22 = load ptr, ptr %ret, align 8
  store ptr %22, ptr %retval, align 8
  store i32 1, ptr %cleanup.dest.slot, align 4
  br label %cleanup

err:                                              ; preds = %if.then19, %if.then14, %if.then9
  %23 = load ptr, ptr %errp.addr, align 8
  %24 = load ptr, ptr %id.addr, align 8
  call void (ptr, ptr, ...) @error_prepend(ptr noundef %23, ptr noundef @.str.92, ptr noundef %24)
  store ptr null, ptr %retval, align 8
  store i32 1, ptr %cleanup.dest.slot, align 4
  br label %cleanup

cleanup:                                          ; preds = %err, %if.end26, %if.then4
  call void @glib_autoptr_cleanup_Chardev(ptr noundef %chr)
  call void @glib_auto_cleanup_ErrorPropagator(ptr noundef %_auto_errp_prop)
  %25 = load ptr, ptr %retval, align 8
  ret ptr %25
}