; Function Attrs: nounwind sspstrong uwtable
define dso_local noalias noundef ptr @qmp_chardev_add(ptr noundef %id, ptr noundef %backend, ptr noundef %errp) local_unnamed_addr #0 {
entry:
  %_auto_errp_prop = alloca %struct.ErrorPropagator, align 8
  store ptr null, ptr %_auto_errp_prop, align 8
  %errp1 = getelementptr inbounds nuw i8, ptr %_auto_errp_prop, i64 8
  store ptr %errp, ptr %errp1, align 8
  %tobool = icmp eq ptr %errp, null
  %cmp = icmp eq ptr %errp, @error_fatal
  %or.cond = or i1 %tobool, %cmp
  %spec.select = select i1 %or.cond, ptr %_auto_errp_prop, ptr %errp
  %call.i.i = tail call ptr @object_get_root() #13
  %call1.i.i = tail call ptr @container_get(ptr noundef %call.i.i, ptr noundef nonnull @.str) #13
  %call1.i = tail call ptr @object_resolve_path_component(ptr noundef %call1.i.i, ptr noundef %id) #13
  %tobool.not.i = icmp eq ptr %call1.i, null
  br i1 %tobool.not.i, label %if.end5, label %qemu_chr_find.exit

qemu_chr_find.exit:                               ; preds = %entry
  %call.i2.i = tail call ptr @object_dynamic_cast_assert(ptr noundef nonnull %call1.i, ptr noundef nonnull @.str.4, ptr noundef nonnull @.str.104, i32 noundef 231, ptr noundef nonnull @__func__.CHARDEV) #13
  %tobool3.not = icmp eq ptr %call.i2.i, null
  br i1 %tobool3.not, label %if.end5, label %cleanup.thread27

cleanup.thread27:                                 ; preds = %qemu_chr_find.exit
  call void (ptr, ptr, i32, ptr, ptr, ...) @error_setg_internal(ptr noundef nonnull %spec.select, ptr noundef nonnull @.str.2, i32 noundef 1010, ptr noundef nonnull @__func__.qmp_chardev_add, ptr noundef nonnull @.str.90, ptr noundef %id) #13
  br label %glib_autoptr_cleanup_Chardev.exit

if.end5:                                          ; preds = %entry, %qemu_chr_find.exit
  %0 = load i32, ptr %backend, align 8
  %call6 = tail call ptr @qapi_enum_lookup(ptr noundef nonnull @ChardevBackendKind_lookup, i32 noundef %0) #13
  %call7 = call fastcc ptr @char_get_class(ptr noundef %call6, ptr noundef nonnull %spec.select)
  %tobool8.not = icmp eq ptr %call7, null
  br i1 %tobool8.not, label %cleanup.thread32, label %if.end10

if.end10:                                         ; preds = %if.end5
  %call11 = call ptr @object_class_get_name(ptr noundef nonnull %call7) #13
  %call12 = call fastcc ptr @chardev_new(ptr noundef %id, ptr noundef %call11, ptr noundef nonnull %backend, ptr noundef null, i1 noundef zeroext false, ptr noundef nonnull %spec.select)
  %tobool13.not = icmp eq ptr %call12, null
  br i1 %tobool13.not, label %cleanup.thread32, label %if.end15

if.end15:                                         ; preds = %if.end10
  %call.i = call ptr @object_get_root() #13
  %call1.i16 = call ptr @container_get(ptr noundef %call.i, ptr noundef nonnull @.str) #13
  %call17 = call ptr @object_property_try_add_child(ptr noundef %call1.i16, ptr noundef %id, ptr noundef nonnull %call12, ptr noundef nonnull %spec.select) #13
  %tobool18.not = icmp eq ptr %call17, null
  br i1 %tobool18.not, label %cleanup, label %if.end20

if.end20:                                         ; preds = %if.end15
  %call21 = call noalias dereferenceable_or_null(8) ptr @g_malloc0_n(i64 noundef 1, i64 noundef 8) #17
  %call22 = call ptr @object_dynamic_cast(ptr noundef nonnull %call12, ptr noundef nonnull @.str.91) #13
  %tobool23.not = icmp eq ptr %call22, null
  br i1 %tobool23.not, label %if.then.i.i, label %if.then24

if.then24:                                        ; preds = %if.end20
  %filename = getelementptr inbounds nuw i8, ptr %call12, i64 104
  %1 = load ptr, ptr %filename, align 8
  %add.ptr = getelementptr i8, ptr %1, i64 4
  %call25 = call noalias ptr @g_strdup(ptr noundef %add.ptr) #13
  store ptr %call25, ptr %call21, align 8
  br label %if.then.i.i

cleanup.thread32:                                 ; preds = %if.end5, %if.end10
  call void (ptr, ptr, ...) @error_prepend(ptr noundef nonnull %spec.select, ptr noundef nonnull @.str.92, ptr noundef %id) #13
  br label %glib_autoptr_cleanup_Chardev.exit

cleanup:                                          ; preds = %if.end15
  call void (ptr, ptr, ...) @error_prepend(ptr noundef nonnull %spec.select, ptr noundef nonnull @.str.92, ptr noundef %id) #13
  br label %if.then.i.i

if.then.i.i:                                      ; preds = %if.then24, %if.end20, %cleanup
  %retval.025 = phi ptr [ null, %cleanup ], [ %call21, %if.end20 ], [ %call21, %if.then24 ]
  call void @object_unref(ptr noundef nonnull %call12) #13
  br label %glib_autoptr_cleanup_Chardev.exit

glib_autoptr_cleanup_Chardev.exit:                ; preds = %cleanup.thread32, %cleanup.thread27, %if.then.i.i
  %retval.026 = phi ptr [ %retval.025, %if.then.i.i ], [ null, %cleanup.thread27 ], [ null, %cleanup.thread32 ]
  %_auto_errp_prop.val = load ptr, ptr %_auto_errp_prop, align 8
  %_auto_errp_prop.val15 = load ptr, ptr %errp1, align 8
  call void @error_propagate(ptr noundef %_auto_errp_prop.val15, ptr noundef %_auto_errp_prop.val) #13
  ret ptr %retval.026
}